target datalayout = "e-m:e-p270:32:32-p271:32:32-p272:64:64-i64:64-i128:128-f80:128-n8:16:32:64-S128"
target triple = "x86_64-unknown-linux-gnu"

%"class.std::__shared_count" = type { ptr }
%"struct.node::AssertionInfo" = type { ptr, ptr, ptr }
%"class.node::crypto::ByteSource" = type { ptr, ptr, i64 }
%"class.v8::Local" = type { %"class.v8::LocalBase" }
%"class.v8::LocalBase" = type { %"class.v8::IndirectHandleBase" }
%"class.v8::IndirectHandleBase" = type { ptr }
%"class.v8::Local.260" = type { %"class.v8::LocalBase.261" }
%"class.v8::LocalBase.261" = type { %"class.v8::IndirectHandleBase" }
%"class.std::__shared_ptr.303" = type { ptr, %"class.std::__shared_count" }

@_ZZN4node6crypto10ByteSource28FromSymmetricKeyObjectHandleEN2v85LocalINS2_5ValueEEEE4args = internal constant %"struct.node::AssertionInfo" { ptr @.str.28, ptr @.str.29, ptr @.str.30 }, align 8
@_ZZN4node6crypto10ByteSource28FromSymmetricKeyObjectHandleEN2v85LocalINS2_5ValueEEEE4args_0 = internal constant %"struct.node::AssertionInfo" { ptr @.str.31, ptr @.str.32, ptr @.str.30 }, align 8

; Function Attrs: mustprogress nounwind uwtable
define linkonce_odr dso_local noundef ptr @_ZNKSt12__shared_ptrIN4node6crypto13KeyObjectDataELN9__gnu_cxx12_Lock_policyE2EE3getEv(ptr noundef nonnull align 8 dereferenceable(16) %this) #4 comdat align 2 {
entry:
  %this.addr = alloca ptr, align 8
  store ptr %this, ptr %this.addr, align 8
  %this1 = load ptr, ptr %this.addr, align 8
  %_M_ptr = getelementptr inbounds %"class.std::__shared_ptr.303", ptr %this1, i32 0, i32 0
  %0 = load ptr, ptr %_M_ptr, align 8
  ret ptr %0
}

; Function Attrs: mustprogress nounwind uwtable
define linkonce_odr dso_local noundef ptr @_ZN4node10BaseObject12FromJSObjectEN2v85LocalINS1_5ValueEEE(ptr %value.coerce) #4 comdat align 2 {
entry:
  %instance_type.addr.i = alloca i32, align 4
  %value.addr.i = alloca ptr, align 8
  %heap_object_ptr.addr.i12.i = alloca i64, align 8
  %offset.addr.i13.i = alloca i32, align 4
  %addr.i14.i = alloca i64, align 8
  %heap_object_ptr.addr.i2.i.i = alloca i64, align 8
  %offset.addr.i3.i.i = alloca i32, align 4
  %addr.i.i.i = alloca i64, align 8
  %heap_object_ptr.addr.i.i.i = alloca i64, align 8
  %offset.addr.i.i.i = alloca i32, align 4
  %obj.addr.i10.i = alloca i64, align 8
  %map.i.i = alloca i64, align 8
  %heap_object_ptr.addr.i8.i = alloca i64, align 8
  %offset.addr.i9.i = alloca i32, align 4
  %addr.i.i = alloca i64, align 8
  %isolate.addr.i.i = alloca ptr, align 8
  %heap_object_ptr.addr.i.i = alloca i64, align 8
  %offset.addr.i.i = alloca i32, align 4
  %obj.addr.i.i = alloca i64, align 8
  %retval.i19 = alloca ptr, align 8
  %this.addr.i20 = alloca ptr, align 8
  %index.addr.i = alloca i32, align 4
  %obj.i = alloca i64, align 8
  %instance_type.i = alloca i32, align 4
  %offset.i = alloca i32, align 4
  %isolate.i = alloca ptr, align 8
  %value.i = alloca i64, align 8
  %this.addr.i16 = alloca ptr, align 8
  %other.addr.i17 = alloca ptr, align 8
  %this.addr.i14 = alloca ptr, align 8
  %other.addr.i = alloca ptr, align 8
  %retval.i13 = alloca %"class.v8::Local.260", align 8
  %that.i = alloca %"class.v8::Local", align 8
  %ref.tmp.i = alloca %"class.v8::LocalBase.261", align 8
  %slot.addr.i = alloca ptr, align 8
  %this.addr.i.i = alloca ptr, align 8
  %this.addr.i11 = alloca ptr, align 8
  %this.addr.i8 = alloca ptr, align 8
  %retval.i = alloca %"class.v8::Local.260", align 8
  %this.addr.i = alloca ptr, align 8
  %agg.tmp.i = alloca %"class.v8::Local", align 8
  %value = alloca %"class.v8::Local", align 8
  %obj = alloca %"class.v8::Local.260", align 8
  %coerce.dive = getelementptr inbounds %"class.v8::Local", ptr %value, i32 0, i32 0
  %coerce.dive1 = getelementptr inbounds %"class.v8::LocalBase", ptr %coerce.dive, i32 0, i32 0
  %coerce.dive2 = getelementptr inbounds %"class.v8::IndirectHandleBase", ptr %coerce.dive1, i32 0, i32 0
  store ptr %value.coerce, ptr %coerce.dive2, align 8
  store ptr %value, ptr %this.addr.i, align 8
  %this1.i = load ptr, ptr %this.addr.i, align 8
  call void @llvm.memcpy.p0.p0.i64(ptr align 8 %agg.tmp.i, ptr align 8 %this1.i, i64 8, i1 false)
  %0 = load ptr, ptr %agg.tmp.i, align 8
  store ptr %0, ptr %that.i, align 8
  store ptr %ref.tmp.i, ptr %this.addr.i14, align 8
  store ptr %that.i, ptr %other.addr.i, align 8
  %this1.i15 = load ptr, ptr %this.addr.i14, align 8
  %1 = load ptr, ptr %other.addr.i, align 8
  call void @llvm.memcpy.p0.p0.i64(ptr align 8 %this1.i15, ptr align 8 %1, i64 8, i1 false)
  store ptr %retval.i13, ptr %this.addr.i16, align 8
  store ptr %ref.tmp.i, ptr %other.addr.i17, align 8
  %this1.i18 = load ptr, ptr %this.addr.i16, align 8
  %2 = load ptr, ptr %other.addr.i17, align 8
  call void @llvm.memcpy.p0.p0.i64(ptr align 8 %this1.i18, ptr align 8 %2, i64 8, i1 false)
  %3 = load ptr, ptr %retval.i13, align 8
  store ptr %3, ptr %retval.i, align 8
  %4 = load ptr, ptr %retval.i, align 8
  %coerce.dive3 = getelementptr inbounds %"class.v8::Local.260", ptr %obj, i32 0, i32 0
  %coerce.dive4 = getelementptr inbounds %"class.v8::LocalBase.261", ptr %coerce.dive3, i32 0, i32 0
  %coerce.dive5 = getelementptr inbounds %"class.v8::IndirectHandleBase", ptr %coerce.dive4, i32 0, i32 0
  store ptr %4, ptr %coerce.dive5, align 8
  store ptr %obj, ptr %this.addr.i8, align 8
  %this1.i9 = load ptr, ptr %this.addr.i8, align 8
  store ptr %this1.i9, ptr %this.addr.i11, align 8
  %this1.i12 = load ptr, ptr %this.addr.i11, align 8
  store ptr %this1.i12, ptr %this.addr.i.i, align 8
  %this1.i.i = load ptr, ptr %this.addr.i.i, align 8
  %5 = load ptr, ptr %this1.i.i, align 8
  store ptr %5, ptr %slot.addr.i, align 8
  %6 = load ptr, ptr %slot.addr.i, align 8
  store ptr %6, ptr %this.addr.i20, align 8
  store i32 1, ptr %index.addr.i, align 4
  %this1.i21 = load ptr, ptr %this.addr.i20, align 8
  store ptr %this1.i21, ptr %value.addr.i, align 8
  %7 = load ptr, ptr %value.addr.i, align 8
  %8 = load i64, ptr %7, align 8
  store i64 %8, ptr %obj.i, align 8
  %9 = load i64, ptr %obj.i, align 8
  store i64 %9, ptr %obj.addr.i10.i, align 8
  %10 = load i64, ptr %obj.addr.i10.i, align 8
  store i64 %10, ptr %heap_object_ptr.addr.i.i.i, align 8
  store i32 0, ptr %offset.addr.i.i.i, align 4
  %11 = load i64, ptr %heap_object_ptr.addr.i.i.i, align 8
  %12 = load i32, ptr %offset.addr.i.i.i, align 4
  store i64 %11, ptr %heap_object_ptr.addr.i2.i.i, align 8
  store i32 %12, ptr %offset.addr.i3.i.i, align 4
  %13 = load i64, ptr %heap_object_ptr.addr.i2.i.i, align 8
  %14 = load i32, ptr %offset.addr.i3.i.i, align 4
  %conv.i.i.i = sext i32 %14 to i64
  %add.i.i.i = add i64 %13, %conv.i.i.i
  %sub.i.i.i = sub i64 %add.i.i.i, 1
  store i64 %sub.i.i.i, ptr %addr.i.i.i, align 8
  %15 = load i64, ptr %addr.i.i.i, align 8
  %16 = inttoptr i64 %15 to ptr
  %17 = load i64, ptr %16, align 8
  store i64 %17, ptr %map.i.i, align 8
  %18 = load i64, ptr %map.i.i, align 8
  store i64 %18, ptr %heap_object_ptr.addr.i12.i, align 8
  store i32 12, ptr %offset.addr.i13.i, align 4
  %19 = load i64, ptr %heap_object_ptr.addr.i12.i, align 8
  %20 = load i32, ptr %offset.addr.i13.i, align 4
  %conv.i15.i = sext i32 %20 to i64
  %add.i16.i = add i64 %19, %conv.i15.i
  %sub.i17.i = sub i64 %add.i16.i, 1
  store i64 %sub.i17.i, ptr %addr.i14.i, align 8
  %21 = load i64, ptr %addr.i14.i, align 8
  %22 = inttoptr i64 %21 to ptr
  %23 = load i16, ptr %22, align 2
  %conv.i11.i = zext i16 %23 to i32
  store i32 %conv.i11.i, ptr %instance_type.i, align 4
  %24 = load i32, ptr %instance_type.i, align 4
  store i32 %24, ptr %instance_type.addr.i, align 4
  %25 = load i32, ptr %instance_type.addr.i, align 4
  %cmp.i = icmp eq i32 %25, 1040
  br i1 %cmp.i, label %_ZN2v88internal9Internals20CanHaveInternalFieldEi.exit, label %lor.rhs.i

lor.rhs.i:                                        ; preds = %entry
  %26 = load i32, ptr %instance_type.addr.i, align 4
  %sub.i = sub i32 %26, 1057
  %cmp1.i = icmp ule i32 %sub.i, 1001
  br label %_ZN2v88internal9Internals20CanHaveInternalFieldEi.exit

_ZN2v88internal9Internals20CanHaveInternalFieldEi.exit: ; preds = %lor.rhs.i, %entry
  %27 = phi i1 [ true, %entry ], [ %cmp1.i, %lor.rhs.i ]
  br i1 %27, label %if.then.i, label %if.end.i

if.then.i:                                        ; preds = %_ZN2v88internal9Internals20CanHaveInternalFieldEi.exit
  %28 = load i32, ptr %index.addr.i, align 4
  %mul.i = mul nsw i32 8, %28
  %add.i = add nsw i32 24, %mul.i
  store i32 %add.i, ptr %offset.i, align 4
  %29 = load i64, ptr %obj.i, align 8
  store i64 %29, ptr %obj.addr.i.i, align 8
  store ptr null, ptr %isolate.i, align 8
  %30 = load ptr, ptr %isolate.i, align 8
  %31 = load i64, ptr %obj.i, align 8
  %32 = load i32, ptr %offset.i, align 4
  store ptr %30, ptr %isolate.addr.i.i, align 8
  store i64 %31, ptr %heap_object_ptr.addr.i.i, align 8
  store i32 %32, ptr %offset.addr.i.i, align 4
  %33 = load i64, ptr %heap_object_ptr.addr.i.i, align 8
  %34 = load i32, ptr %offset.addr.i.i, align 4
  store i64 %33, ptr %heap_object_ptr.addr.i8.i, align 8
  store i32 %34, ptr %offset.addr.i9.i, align 4
  %35 = load i64, ptr %heap_object_ptr.addr.i8.i, align 8
  %36 = load i32, ptr %offset.addr.i9.i, align 4
  %conv.i.i = sext i32 %36 to i64
  %add.i.i = add i64 %35, %conv.i.i
  %sub.i.i = sub i64 %add.i.i, 1
  store i64 %sub.i.i, ptr %addr.i.i, align 8
  %37 = load i64, ptr %addr.i.i, align 8
  %38 = inttoptr i64 %37 to ptr
  %39 = load i64, ptr %38, align 8
  store i64 %39, ptr %value.i, align 8
  %40 = load i64, ptr %value.i, align 8
  %41 = inttoptr i64 %40 to ptr
  store ptr %41, ptr %retval.i19, align 8
  br label %_ZN2v86Object34GetAlignedPointerFromInternalFieldEi.exit

if.end.i:                                         ; preds = %_ZN2v88internal9Internals20CanHaveInternalFieldEi.exit
  %42 = load i32, ptr %index.addr.i, align 4
  %call7.i = call noundef ptr @_ZN2v86Object38SlowGetAlignedPointerFromInternalFieldEi(ptr noundef nonnull align 1 dereferenceable(1) %this1.i21, i32 noundef %42) #3
  store ptr %call7.i, ptr %retval.i19, align 8
  br label %_ZN2v86Object34GetAlignedPointerFromInternalFieldEi.exit

_ZN2v86Object34GetAlignedPointerFromInternalFieldEi.exit: ; preds = %if.end.i, %if.then.i
  %43 = load ptr, ptr %retval.i19, align 8
  ret ptr %43
}

; Function Attrs: mustprogress nounwind uwtable
define linkonce_odr dso_local void @_ZN4node6crypto10ByteSourceC2EPKvPvm(ptr noundef nonnull align 8 dereferenceable(24) %this, ptr noundef %data, ptr noundef %allocated_data, i64 noundef %size) unnamed_addr #4 comdat align 2 {
entry:
  %this.addr = alloca ptr, align 8
  %data.addr = alloca ptr, align 8
  %allocated_data.addr = alloca ptr, align 8
  %size.addr = alloca i64, align 8
  store ptr %this, ptr %this.addr, align 8
  store ptr %data, ptr %data.addr, align 8
  store ptr %allocated_data, ptr %allocated_data.addr, align 8
  store i64 %size, ptr %size.addr, align 8
  %this1 = load ptr, ptr %this.addr, align 8
  %data_ = getelementptr inbounds %"class.node::crypto::ByteSource", ptr %this1, i32 0, i32 0
  %0 = load ptr, ptr %data.addr, align 8
  store ptr %0, ptr %data_, align 8
  %allocated_data_ = getelementptr inbounds %"class.node::crypto::ByteSource", ptr %this1, i32 0, i32 1
  %1 = load ptr, ptr %allocated_data.addr, align 8
  store ptr %1, ptr %allocated_data_, align 8
  %size_ = getelementptr inbounds %"class.node::crypto::ByteSource", ptr %this1, i32 0, i32 2
  %2 = load i64, ptr %size.addr, align 8
  store i64 %2, ptr %size_, align 8
  ret void
}

; Function Attrs: mustprogress nounwind uwtable
define linkonce_odr dso_local noundef ptr @_ZNKSt19__shared_ptr_accessIN4node6crypto13KeyObjectDataELN9__gnu_cxx12_Lock_policyE2ELb0ELb0EE6_M_getEv(ptr noundef nonnull align 1 dereferenceable(1) %this) #4 comdat align 2 {
entry:
  %this.addr = alloca ptr, align 8
  store ptr %this, ptr %this.addr, align 8
  %this1 = load ptr, ptr %this.addr, align 8
  %call = call noundef ptr @_ZNKSt12__shared_ptrIN4node6crypto13KeyObjectDataELN9__gnu_cxx12_Lock_policyE2EE3getEv(ptr noundef nonnull align 8 dereferenceable(16) %this1) #3
  ret ptr %call
}

; Function Attrs: mustprogress nounwind uwtable
define linkonce_odr dso_local noundef ptr @_ZN4node10BaseObject12FromJSObjectINS_6crypto15KeyObjectHandleEEEPT_N2v85LocalINS6_5ValueEEE(ptr %object.coerce) #4 comdat align 2 {
entry:
  %object = alloca %"class.v8::Local", align 8
  %agg.tmp = alloca %"class.v8::Local", align 8
  %coerce.dive = getelementptr inbounds %"class.v8::Local", ptr %object, i32 0, i32 0
  %coerce.dive1 = getelementptr inbounds %"class.v8::LocalBase", ptr %coerce.dive, i32 0, i32 0
  %coerce.dive2 = getelementptr inbounds %"class.v8::IndirectHandleBase", ptr %coerce.dive1, i32 0, i32 0
  store ptr %object.coerce, ptr %coerce.dive2, align 8
  call void @llvm.memcpy.p0.p0.i64(ptr align 8 %agg.tmp, ptr align 8 %object, i64 8, i1 false)
  %coerce.dive3 = getelementptr inbounds %"class.v8::Local", ptr %agg.tmp, i32 0, i32 0
  %coerce.dive4 = getelementptr inbounds %"class.v8::LocalBase", ptr %coerce.dive3, i32 0, i32 0
  %coerce.dive5 = getelementptr inbounds %"class.v8::IndirectHandleBase", ptr %coerce.dive4, i32 0, i32 0
  %0 = load ptr, ptr %coerce.dive5, align 8
  %call = call noundef ptr @_ZN4node10BaseObject12FromJSObjectEN2v85LocalINS1_5ValueEEE(ptr %0)
  ret ptr %call
}

; Function Attrs: mustprogress nounwind uwtable
define dso_local void @_ZN4node6crypto10ByteSource7ForeignEPKvm(ptr noalias sret(%"class.node::crypto::ByteSource") align 8 %agg.result, ptr noundef %data, i64 noundef %size) #4 align 2 {
entry:
  %result.ptr = alloca ptr, align 8
  %data.addr = alloca ptr, align 8
  %size.addr = alloca i64, align 8
  store ptr %agg.result, ptr %result.ptr, align 8
  store ptr %data, ptr %data.addr, align 8
  store i64 %size, ptr %size.addr, align 8
  %0 = load ptr, ptr %data.addr, align 8
  %1 = load i64, ptr %size.addr, align 8
  call void @_ZN4node6crypto10ByteSourceC2EPKvPvm(ptr noundef nonnull align 8 dereferenceable(24) %agg.result, ptr noundef %0, ptr noundef null, i64 noundef %1)
  ret void
}

; Function Attrs: mustprogress nounwind uwtable
define linkonce_odr dso_local noundef ptr @_ZNKSt19__shared_ptr_accessIN4node6crypto13KeyObjectDataELN9__gnu_cxx12_Lock_policyE2ELb0ELb0EEptEv(ptr noundef nonnull align 1 dereferenceable(1) %this) #4 comdat align 2 {
entry:
  %this.addr = alloca ptr, align 8
  store ptr %this, ptr %this.addr, align 8
  %this1 = load ptr, ptr %this.addr, align 8
  %call = call noundef ptr @_ZNKSt19__shared_ptr_accessIN4node6crypto13KeyObjectDataELN9__gnu_cxx12_Lock_policyE2ELb0ELb0EE6_M_getEv(ptr noundef nonnull align 1 dereferenceable(1) %this1) #3
  ret ptr %call
}

; Function Attrs: mustprogress nounwind uwtable
define linkonce_odr dso_local noundef ptr @_ZN4node6UnwrapINS_6crypto15KeyObjectHandleEEEPT_N2v85LocalINS5_5ValueEEE(ptr %obj.coerce) #4 comdat {
entry:
  %obj = alloca %"class.v8::Local", align 8
  %agg.tmp = alloca %"class.v8::Local", align 8
  %coerce.dive = getelementptr inbounds %"class.v8::Local", ptr %obj, i32 0, i32 0
  %coerce.dive1 = getelementptr inbounds %"class.v8::LocalBase", ptr %coerce.dive, i32 0, i32 0
  %coerce.dive2 = getelementptr inbounds %"class.v8::IndirectHandleBase", ptr %coerce.dive1, i32 0, i32 0
  store ptr %obj.coerce, ptr %coerce.dive2, align 8
  call void @llvm.memcpy.p0.p0.i64(ptr align 8 %agg.tmp, ptr align 8 %obj, i64 8, i1 false)
  %coerce.dive3 = getelementptr inbounds %"class.v8::Local", ptr %agg.tmp, i32 0, i32 0
  %coerce.dive4 = getelementptr inbounds %"class.v8::LocalBase", ptr %coerce.dive3, i32 0, i32 0
  %coerce.dive5 = getelementptr inbounds %"class.v8::IndirectHandleBase", ptr %coerce.dive4, i32 0, i32 0
  %0 = load ptr, ptr %coerce.dive5, align 8
  %call = call noundef ptr @_ZN4node10BaseObject12FromJSObjectINS_6crypto15KeyObjectHandleEEEPT_N2v85LocalINS6_5ValueEEE(ptr %0)
  ret ptr %call
}

; Function Attrs: mustprogress nounwind uwtable
define dso_local void @_ZN4node6crypto10ByteSource28FromSymmetricKeyObjectHandleEN2v85LocalINS2_5ValueEEE(ptr noalias sret(%"class.node::crypto::ByteSource") align 8 %agg.result, ptr %handle.coerce) #4 align 2 {
entry:
  %this.addr.i48 = alloca ptr, align 8
  %other.addr.i49 = alloca ptr, align 8
  %this.addr.i45 = alloca ptr, align 8
  %other.addr.i46 = alloca ptr, align 8
  %retval.i43 = alloca %"class.v8::Local.260", align 8
  %that.i44 = alloca %"class.v8::Local", align 8
  %ref.tmp.i = alloca %"class.v8::LocalBase.261", align 8
  %this.addr.i41 = alloca ptr, align 8
  %other.addr.i = alloca ptr, align 8
  %slot.addr.i = alloca ptr, align 8
  %this.addr.i.i = alloca ptr, align 8
  %this.addr.i39 = alloca ptr, align 8
  %that.i = alloca %"class.v8::Local.260", align 8
  %this.addr.i38 = alloca ptr, align 8
  %retval.i = alloca %"class.v8::Local.260", align 8
  %this.addr.i35 = alloca ptr, align 8
  %agg.tmp.i = alloca %"class.v8::Local", align 8
  %this.addr.i = alloca ptr, align 8
  %result.ptr = alloca ptr, align 8
  %handle = alloca %"class.v8::Local", align 8
  %key = alloca ptr, align 8
  %agg.tmp = alloca %"class.v8::Local", align 8
  %agg.tmp8 = alloca %"class.v8::Local.260", align 8
  store ptr %agg.result, ptr %result.ptr, align 8
  %coerce.dive = getelementptr inbounds %"class.v8::Local", ptr %handle, i32 0, i32 0
  %coerce.dive1 = getelementptr inbounds %"class.v8::LocalBase", ptr %coerce.dive, i32 0, i32 0
  %coerce.dive2 = getelementptr inbounds %"class.v8::IndirectHandleBase", ptr %coerce.dive1, i32 0, i32 0
  store ptr %handle.coerce, ptr %coerce.dive2, align 8
  br label %do.body

do.body:                                          ; preds = %entry
  store ptr %handle, ptr %this.addr.i, align 8
  %this1.i = load ptr, ptr %this.addr.i, align 8
  store ptr %this1.i, ptr %this.addr.i39, align 8
  %this1.i40 = load ptr, ptr %this.addr.i39, align 8
  store ptr %this1.i40, ptr %this.addr.i.i, align 8
  %this1.i.i = load ptr, ptr %this.addr.i.i, align 8
  %0 = load ptr, ptr %this1.i.i, align 8
  store ptr %0, ptr %slot.addr.i, align 8
  %1 = load ptr, ptr %slot.addr.i, align 8
  %call3 = call noundef zeroext i1 @_ZNK2v85Value8IsObjectEv(ptr noundef nonnull align 1 dereferenceable(1) %1)
  %lnot = xor i1 %call3, true
  %lnot4 = xor i1 %lnot, true
  %lnot5 = xor i1 %lnot4, true
  br i1 %lnot5, label %if.then, label %if.end

if.then:                                          ; preds = %do.body
  br label %do.body6

do.body6:                                         ; preds = %if.then
  call void @_ZN4node6AssertERKNS_13AssertionInfoE(ptr noundef nonnull align 8 dereferenceable(24) @_ZZN4node6crypto10ByteSource28FromSymmetricKeyObjectHandleEN2v85LocalINS2_5ValueEEEE4args)
  call void @abort() #15
  unreachable

do.end:                                           ; No predecessors!
  br label %if.end

if.end:                                           ; preds = %do.end, %do.body
  br label %do.end7

do.end7:                                          ; preds = %if.end
  store ptr %handle, ptr %this.addr.i35, align 8
  %this1.i36 = load ptr, ptr %this.addr.i35, align 8
  call void @llvm.memcpy.p0.p0.i64(ptr align 8 %agg.tmp.i, ptr align 8 %this1.i36, i64 8, i1 false)
  %2 = load ptr, ptr %agg.tmp.i, align 8
  store ptr %2, ptr %that.i44, align 8
  store ptr %ref.tmp.i, ptr %this.addr.i45, align 8
  store ptr %that.i44, ptr %other.addr.i46, align 8
  %this1.i47 = load ptr, ptr %this.addr.i45, align 8
  %3 = load ptr, ptr %other.addr.i46, align 8
  call void @llvm.memcpy.p0.p0.i64(ptr align 8 %this1.i47, ptr align 8 %3, i64 8, i1 false)
  store ptr %retval.i43, ptr %this.addr.i48, align 8
  store ptr %ref.tmp.i, ptr %other.addr.i49, align 8
  %this1.i50 = load ptr, ptr %this.addr.i48, align 8
  %4 = load ptr, ptr %other.addr.i49, align 8
  call void @llvm.memcpy.p0.p0.i64(ptr align 8 %this1.i50, ptr align 8 %4, i64 8, i1 false)
  %5 = load ptr, ptr %retval.i43, align 8
  store ptr %5, ptr %retval.i, align 8
  %6 = load ptr, ptr %retval.i, align 8
  %coerce.dive10 = getelementptr inbounds %"class.v8::Local.260", ptr %agg.tmp8, i32 0, i32 0
  %coerce.dive11 = getelementptr inbounds %"class.v8::LocalBase.261", ptr %coerce.dive10, i32 0, i32 0
  %coerce.dive12 = getelementptr inbounds %"class.v8::IndirectHandleBase", ptr %coerce.dive11, i32 0, i32 0
  store ptr %6, ptr %coerce.dive12, align 8
  %coerce.dive13 = getelementptr inbounds %"class.v8::Local.260", ptr %agg.tmp8, i32 0, i32 0
  %coerce.dive14 = getelementptr inbounds %"class.v8::LocalBase.261", ptr %coerce.dive13, i32 0, i32 0
  %coerce.dive15 = getelementptr inbounds %"class.v8::IndirectHandleBase", ptr %coerce.dive14, i32 0, i32 0
  %7 = load ptr, ptr %coerce.dive15, align 8
  store ptr %7, ptr %that.i, align 8
  store ptr %agg.tmp, ptr %this.addr.i38, align 8
  %this3.i = load ptr, ptr %this.addr.i38, align 8
  store ptr %this3.i, ptr %this.addr.i41, align 8
  store ptr %that.i, ptr %other.addr.i, align 8
  %this1.i42 = load ptr, ptr %this.addr.i41, align 8
  %8 = load ptr, ptr %other.addr.i, align 8
  call void @llvm.memcpy.p0.p0.i64(ptr align 8 %this1.i42, ptr align 8 %8, i64 8, i1 false)
  %coerce.dive16 = getelementptr inbounds %"class.v8::Local", ptr %agg.tmp, i32 0, i32 0
  %coerce.dive17 = getelementptr inbounds %"class.v8::LocalBase", ptr %coerce.dive16, i32 0, i32 0
  %coerce.dive18 = getelementptr inbounds %"class.v8::IndirectHandleBase", ptr %coerce.dive17, i32 0, i32 0
  %9 = load ptr, ptr %coerce.dive18, align 8
  %call19 = call noundef ptr @_ZN4node6UnwrapINS_6crypto15KeyObjectHandleEEEPT_N2v85LocalINS5_5ValueEEE(ptr %9)
  store ptr %call19, ptr %key, align 8
  br label %do.body20

do.body20:                                        ; preds = %do.end7
  %10 = load ptr, ptr %key, align 8
  %cmp = icmp ne ptr %10, null
  %lnot21 = xor i1 %cmp, true
  %lnot22 = xor i1 %lnot21, true
  %lnot23 = xor i1 %lnot22, true
  br i1 %lnot23, label %if.then24, label %if.end27

if.then24:                                        ; preds = %do.body20
  br label %do.body25

do.body25:                                        ; preds = %if.then24
  call void @_ZN4node6AssertERKNS_13AssertionInfoE(ptr noundef nonnull align 8 dereferenceable(24) @_ZZN4node6crypto10ByteSource28FromSymmetricKeyObjectHandleEN2v85LocalINS2_5ValueEEEE4args_0)
  call void @abort() #15
  unreachable

do.end26:                                         ; No predecessors!
  br label %if.end27

if.end27:                                         ; preds = %do.end26, %do.body20
  br label %do.end28

do.end28:                                         ; preds = %if.end27
  %11 = load ptr, ptr %key, align 8
  %call29 = call noundef nonnull align 8 dereferenceable(16) ptr @_ZN4node6crypto15KeyObjectHandle4DataEv(ptr noundef nonnull align 8 dereferenceable(48) %11)
  %call30 = call noundef ptr @_ZNKSt19__shared_ptr_accessIN4node6crypto13KeyObjectDataELN9__gnu_cxx12_Lock_policyE2ELb0ELb0EEptEv(ptr noundef nonnull align 1 dereferenceable(1) %call29) #3
  %call31 = call noundef ptr @_ZNK4node6crypto13KeyObjectData15GetSymmetricKeyEv(ptr noundef nonnull align 8 dereferenceable(72) %call30)
  %12 = load ptr, ptr %key, align 8
  %call32 = call noundef nonnull align 8 dereferenceable(16) ptr @_ZN4node6crypto15KeyObjectHandle4DataEv(ptr noundef nonnull align 8 dereferenceable(48) %12)
  %call33 = call noundef ptr @_ZNKSt19__shared_ptr_accessIN4node6crypto13KeyObjectDataELN9__gnu_cxx12_Lock_policyE2ELb0ELb0EEptEv(ptr noundef nonnull align 1 dereferenceable(1) %call32) #3
  %call34 = call noundef i64 @_ZNK4node6crypto13KeyObjectData19GetSymmetricKeySizeEv(ptr noundef nonnull align 8 dereferenceable(72) %call33)
  call void @_ZN4node6crypto10ByteSource7ForeignEPKvm(ptr sret(%"class.node::crypto::ByteSource") align 8 %agg.result, ptr noundef %call31, i64 noundef %call34)
  ret void
}